; ModuleID = 'bench/linux/original/bcd.ll'
source_filename = "bench/linux/original/bcd.ll"
target datalayout = "e-m:e-p270:32:32-p271:32:32-p272:64:64-i64:64-i128:128-f80:128-n8:16:32:64-S128"
target triple = "x86_64-unknown-linux-gnu"

module asm ".section \22.export_symbol\22,\22a\22 ; __export_symbol__bcd2bin: ; .asciz \22\22 ; .asciz \22\22 ; .balign 8 ; .quad _bcd2bin ; .previous"
module asm ".section \22.export_symbol\22,\22a\22 ; __export_symbol__bin2bcd: ; .asciz \22\22 ; .asciz \22\22 ; .balign 8 ; .quad _bin2bcd ; .previous"

@__UNIQUE_ID___addressable__bcd2bin0 = internal global ptr @_bcd2bin, section ".discard.addressable", align 8
@__UNIQUE_ID___addressable__bin2bcd1 = internal global ptr @_bin2bcd, section ".discard.addressable", align 8
@llvm.compiler.used = appending global [2 x ptr] [ptr @__UNIQUE_ID___addressable__bcd2bin0, ptr @__UNIQUE_ID___addressable__bin2bcd1], section "llvm.metadata"

; Function Attrs: fn_ret_thunk_extern mustprogress nofree norecurse nosync nounwind null_pointer_is_valid willreturn memory(none)
define dso_local i32 @_bcd2bin(i8 noundef zeroext %0) #0 align 16 {
  %2 = zext i8 %0 to i32
  %3 = and i32 %2, 15
  %4 = lshr i32 %2, 4
  %5 = mul nuw nsw i32 %4, 10
  %6 = add nuw nsw i32 %5, %3
  ret i32 %6
}

; Function Attrs: fn_ret_thunk_extern mustprogress nofree norecurse nosync nounwind null_pointer_is_valid willreturn memory(none)
define dso_local zeroext i8 @_bin2bcd(i32 noundef %0) #0 align 16 {
  %2 = udiv i32 %0, 10
  %3 = shl i32 %2, 4
  %4 = urem i32 %0, 10
  %5 = or disjoint i32 %3, %4
  %6 = trunc i32 %5 to i8
  ret i8 %6
}


!llvm.module.flags = !{!0, !1, !2, !3, !4}

!0 = !{i32 1, !"wchar_size", i32 2}
!1 = !{i32 8, !"cf-protection-branch", i32 1}
!2 = !{i32 4, !"function_return_thunk_extern", i32 1}
!3 = !{i32 4, !"indirect_branch_cs_prefix", i32 1}
!4 = !{i32 4, !"SkipRaxSetup", i32 1}
